; Function Attrs: nounwind uwtable
define void @test_info(ptr noundef %0, i32 noundef %1, ptr noundef %2, ...) local_unnamed_addr #0 {
  %4 = alloca [1 x %struct.__va_list_tag], align 16
  call void @llvm.lifetime.start.p0(i64 24, ptr nonnull %4) #8
  call void @llvm.va_start.p0(ptr nonnull %4)
  %5 = call i32 (ptr, ...) @test_printf_stderr(ptr noundef nonnull @.str, ptr noundef nonnull @.str.7) #8
  %.not20.i.i = icmp eq ptr %0, null
  br i1 %.not20.i.i, label %test_fail_message_prefix.exit.i, label %6

6:                                                ; preds = %3
  %7 = call i32 (ptr, ...) @test_printf_stderr(ptr noundef nonnull @.str.5, ptr noundef nonnull %0, i32 noundef %1) #8
  br label %test_fail_message_prefix.exit.i

test_fail_message_prefix.exit.i:                  ; preds = %6, %3
  %8 = call i32 (ptr, ...) @test_printf_stderr(ptr noundef nonnull @.str.6) #8
  %.not.i = icmp eq ptr %2, null
  br i1 %.not.i, label %test_fail_message_va.exit, label %9

9:                                                ; preds = %test_fail_message_prefix.exit.i
  %10 = call i32 @test_vprintf_stderr(ptr noundef nonnull %2, ptr noundef nonnull %4) #8
  %11 = call i32 (ptr, ...) @test_printf_stderr(ptr noundef nonnull @.str.6) #8
  br label %test_fail_message_va.exit

test_fail_message_va.exit:                        ; preds = %test_fail_message_prefix.exit.i, %9
  %12 = call i32 @test_flush_stderr() #8
  call void @llvm.va_end.p0(ptr nonnull %4)
  call void @llvm.lifetime.end.p0(i64 24, ptr nonnull %4) #8
  ret void
}